
build/output.elf:     file format elf32-littlearm

Disassembly of section .init:

00000000 <_start>:
   0:	e3a0d902 	mov	sp, #32768	; 0x8000
   4:	eb001ffd 	bl	8000 <initLED>
   8:	eb002061 	bl	8194 <main>

0000000c <halt$>:
   c:	eafffffe 	b	c <halt$>
Disassembly of section .text:

00008000 <initLED>:
    8000:	e59f20b0 	ldr	r2, [pc, #176]	; 80b8 <clearPWM1+0x10>
    8004:	e3a03001 	mov	r3, #1	; 0x1
    8008:	e1a03903 	lsl	r3, r3, #18
    800c:	e5823004 	str	r3, [r2, #4]
    8010:	e1a0f00e 	mov	pc, lr

00008014 <ledON>:
    8014:	e59f209c 	ldr	r2, [pc, #156]	; 80b8 <clearPWM1+0x10>
    8018:	e3a03801 	mov	r3, #65536	; 0x10000
    801c:	e5823028 	str	r3, [r2, #40]
    8020:	e1a0f00e 	mov	pc, lr

00008024 <ledOFF>:
    8024:	e59f208c 	ldr	r2, [pc, #140]	; 80b8 <clearPWM1+0x10>
    8028:	e3a03801 	mov	r3, #65536	; 0x10000
    802c:	e582301c 	str	r3, [r2, #28]
    8030:	e1a0f00e 	mov	pc, lr

00008034 <initPWM40>:
    8034:	e59f207c 	ldr	r2, [pc, #124]	; 80b8 <clearPWM1+0x10>
    8038:	e3a03004 	mov	r3, #4	; 0x4
    803c:	e5823010 	str	r3, [r2, #16]
    8040:	e1a0f00e 	mov	pc, lr

00008044 <initPWMclk>:
    8044:	e59f0070 	ldr	r0, [pc, #112]	; 80bc <clearPWM1+0x14>
    8048:	e3a01000 	mov	r1, #0	; 0x0
    804c:	e5801000 	str	r1, [r0]
    8050:	e59f0068 	ldr	r0, [pc, #104]	; 80c0 <clearPWM1+0x18>
    8054:	e5901000 	ldr	r1, [r0]
    8058:	e3c11010 	bic	r1, r1, #16	; 0x10
    805c:	e381145a 	orr	r1, r1, #1509949440	; 0x5a000000
    8060:	e5801000 	str	r1, [r0]

00008064 <waitOff$>:
    8064:	e5901000 	ldr	r1, [r0]
    8068:	e2111080 	ands	r1, r1, #128	; 0x80
    806c:	1afffffc 	bne	8064 <waitOff$>
    8070:	e59f104c 	ldr	r1, [pc, #76]	; 80c4 <clearPWM1+0x1c>
    8074:	e5801004 	str	r1, [r0, #4]
    8078:	e59f1048 	ldr	r1, [pc, #72]	; 80c8 <clearPWM1+0x20>
    807c:	e5801000 	str	r1, [r0]

00008080 <waitOn$>:
    8080:	e5901000 	ldr	r1, [r0]
    8084:	e2111080 	ands	r1, r1, #128	; 0x80
    8088:	0afffffc 	beq	8080 <waitOn$>
    808c:	e1a0f00e 	mov	pc, lr

00008090 <setPWM1>:
    8090:	e59f3024 	ldr	r3, [pc, #36]	; 80bc <clearPWM1+0x14>
    8094:	e5830014 	str	r0, [r3, #20]
    8098:	e5831010 	str	r1, [r3, #16]
    809c:	e3a02001 	mov	r2, #1	; 0x1
    80a0:	e5832000 	str	r2, [r3]
    80a4:	e1a0f00e 	mov	pc, lr

000080a8 <clearPWM1>:
    80a8:	e59f300c 	ldr	r3, [pc, #12]	; 80bc <clearPWM1+0x14>
    80ac:	e3a02000 	mov	r2, #0	; 0x0
    80b0:	e5832000 	str	r2, [r3]
    80b4:	e1a0f00e 	mov	pc, lr
    80b8:	20200000 	.word	0x20200000
    80bc:	2020c000 	.word	0x2020c000
    80c0:	201010a0 	.word	0x201010a0
    80c4:	5a005000 	.word	0x5a005000
    80c8:	5a000016 	.word	0x5a000016

000080cc <wait>:
    80cc:	e59f1020 	ldr	r1, [pc, #32]	; 80f4 <stall$+0x10>
    80d0:	e3a02000 	mov	r2, #0	; 0x0
    80d4:	e581200c 	str	r2, [r1, #12]
    80d8:	e5912004 	ldr	r2, [r1, #4]
    80dc:	e0822000 	add	r2, r2, r0
    80e0:	e581200c 	str	r2, [r1, #12]

000080e4 <stall$>:
    80e4:	e5912000 	ldr	r2, [r1]
    80e8:	e2122001 	ands	r2, r2, #1	; 0x1
    80ec:	0afffffc 	beq	80e4 <stall$>
    80f0:	e1a0f00e 	mov	pc, lr
    80f4:	20003000 	.word	0x20003000

000080f8 <_sin>:
    80f8:	e52db004 	push	{fp}		; (str fp, [sp, #-4]!)
    80fc:	e28db000 	add	fp, sp, #0	; 0x0
    8100:	e24dd00c 	sub	sp, sp, #12	; 0xc
    8104:	e50b0008 	str	r0, [fp, #-8]
    8108:	e51b3008 	ldr	r3, [fp, #-8]
    810c:	e1a01483 	lsl	r1, r3, #9
    8110:	e51b2008 	ldr	r2, [fp, #-8]
    8114:	e51b3008 	ldr	r3, [fp, #-8]
    8118:	e0030392 	mul	r3, r2, r3
    811c:	e0633001 	rsb	r3, r3, r1
    8120:	e1a03343 	asr	r3, r3, #6
    8124:	e1a00003 	mov	r0, r3
    8128:	e28bd000 	add	sp, fp, #0	; 0x0
    812c:	e8bd0800 	pop	{fp}
    8130:	e12fff1e 	bx	lr

00008134 <sin>:
    8134:	e92d4800 	push	{fp, lr}
    8138:	e28db004 	add	fp, sp, #4	; 0x4
    813c:	e24dd008 	sub	sp, sp, #8	; 0x8
    8140:	e50b0008 	str	r0, [fp, #-8]
    8144:	e51b3008 	ldr	r3, [fp, #-8]
    8148:	e3530c02 	cmp	r3, #512	; 0x200
    814c:	da000007 	ble	8170 <sin+0x3c>
    8150:	e51b3008 	ldr	r3, [fp, #-8]
    8154:	e2433c02 	sub	r3, r3, #512	; 0x200
    8158:	e1a00003 	mov	r0, r3
    815c:	ebffffe5 	bl	80f8 <_sin>
    8160:	e1a03000 	mov	r3, r0
    8164:	e2633000 	rsb	r3, r3, #0	; 0x0
    8168:	e50b300c 	str	r3, [fp, #-12]
    816c:	ea000003 	b	8180 <sin+0x4c>
    8170:	e51b0008 	ldr	r0, [fp, #-8]
    8174:	ebffffdf 	bl	80f8 <_sin>
    8178:	e1a03000 	mov	r3, r0
    817c:	e50b300c 	str	r3, [fp, #-12]
    8180:	e51b300c 	ldr	r3, [fp, #-12]
    8184:	e1a00003 	mov	r0, r3
    8188:	e24bd004 	sub	sp, fp, #4	; 0x4
    818c:	e8bd4800 	pop	{fp, lr}
    8190:	e12fff1e 	bx	lr

00008194 <main>:
    8194:	e92d4800 	push	{fp, lr}
    8198:	e28db004 	add	fp, sp, #4	; 0x4
    819c:	e24dd008 	sub	sp, sp, #8	; 0x8
    81a0:	ebffffa3 	bl	8034 <initPWM40>
    81a4:	ebffffa6 	bl	8044 <initPWMclk>
    81a8:	e3a03000 	mov	r3, #0	; 0x0
    81ac:	e50b300c 	str	r3, [fp, #-12]
    81b0:	ea00000e 	b	81f0 <main+0x5c>
    81b4:	e51b000c 	ldr	r0, [fp, #-12]
    81b8:	ebffffdd 	bl	8134 <sin>
    81bc:	e1a03000 	mov	r3, r0
    81c0:	e2833b01 	add	r3, r3, #1024	; 0x400
    81c4:	e1a030c3 	asr	r3, r3, #1
    81c8:	e50b3008 	str	r3, [fp, #-8]
    81cc:	e51b0008 	ldr	r0, [fp, #-8]
    81d0:	e3a01b01 	mov	r1, #1024	; 0x400
    81d4:	ebffffad 	bl	8090 <setPWM1>
    81d8:	e3a00e8e 	mov	r0, #2272	; 0x8e0
    81dc:	e2800001 	add	r0, r0, #1	; 0x1
    81e0:	ebffffb9 	bl	80cc <wait>
    81e4:	e51b300c 	ldr	r3, [fp, #-12]
    81e8:	e2833001 	add	r3, r3, #1	; 0x1
    81ec:	e50b300c 	str	r3, [fp, #-12]
    81f0:	e51b200c 	ldr	r2, [fp, #-12]
    81f4:	e3a03fff 	mov	r3, #1020	; 0x3fc
    81f8:	e2833003 	add	r3, r3, #3	; 0x3
    81fc:	e1520003 	cmp	r2, r3
    8200:	daffffeb 	ble	81b4 <main+0x20>
    8204:	eaffffe7 	b	81a8 <main+0x14>
